target datalayout = "e-m:e-p270:32:32-p271:32:32-p272:64:64-i64:64-i128:128-f80:128-n8:16:32:64-S128"
target triple = "x86_64-unknown-linux-gnu"

%struct.PtyChardev = type { %struct.Chardev, ptr, i32, i32, ptr }
%struct.Chardev = type { %struct.Object, %struct.QemuMutex, ptr, ptr, ptr, i32, i32, i8, ptr, ptr, [1 x i64] }
%struct.Object = type { ptr, ptr, ptr, i32, ptr }
%struct.QemuMutex = type { %union.pthread_mutex_t, i8 }
%union.pthread_mutex_t = type { %struct.__pthread_mutex_s }
%struct.__pthread_mutex_s = type { i32, i32, i32, i32, i32, i16, i16, %struct.__pthread_internal_list }
%struct.__pthread_internal_list = type { ptr, ptr }

@.str = private unnamed_addr constant [12 x i8] c"chardev-pty\00", align 1
@.str.1 = private unnamed_addr constant [8 x i8] c"chardev\00", align 1
@.str.2 = private unnamed_addr constant [101 x i8] c"/home/dtcxzyw/WorkSpace/Projects/compilers/llvm-opt-benchmark/bench/qemu/qemu/include/chardev/char.h\00", align 1
@__func__.CHARDEV = private unnamed_addr constant [8 x i8] c"CHARDEV\00", align 1
@.str.3 = private unnamed_addr constant [27 x i8] c"../qemu/chardev/char-pty.c\00", align 1
@__func__.PTY_CHARDEV = private unnamed_addr constant [12 x i8] c"PTY_CHARDEV\00", align 1

; Function Attrs: nounwind sspstrong uwtable
define internal ptr @PTY_CHARDEV(ptr noundef %obj) #0 {
entry:
  %obj.addr = alloca ptr, align 8
  store ptr %obj, ptr %obj.addr, align 8
  %0 = load ptr, ptr %obj.addr, align 8
  %call = call ptr @object_dynamic_cast_assert(ptr noundef %0, ptr noundef @.str, ptr noundef @.str.3, i32 noundef 48, ptr noundef @__func__.PTY_CHARDEV)
  ret ptr %call
}

; Function Attrs: nounwind sspstrong uwtable
define internal ptr @CHARDEV(ptr noundef %obj) #0 {
entry:
  %obj.addr = alloca ptr, align 8
  store ptr %obj, ptr %obj.addr, align 8
  %0 = load ptr, ptr %obj.addr, align 8
  %call = call ptr @object_dynamic_cast_assert(ptr noundef %0, ptr noundef @.str.1, ptr noundef @.str.2, i32 noundef 231, ptr noundef @__func__.CHARDEV)
  ret ptr %call
}

; Function Attrs: nounwind sspstrong uwtable
define internal i32 @pty_chr_read(ptr noundef %chan, i32 noundef %cond, ptr noundef %opaque) #0 {
entry:
  %retval = alloca i32, align 4
  %chan.addr = alloca ptr, align 8
  %cond.addr = alloca i32, align 4
  %opaque.addr = alloca ptr, align 8
  %chr = alloca ptr, align 8
  %s = alloca ptr, align 8
  %len = alloca i64, align 8
  %buf = alloca [4096 x i8], align 16
  %ret = alloca i64, align 8
  store ptr %chan, ptr %chan.addr, align 8
  store i32 %cond, ptr %cond.addr, align 4
  store ptr %opaque, ptr %opaque.addr, align 8
  %0 = load ptr, ptr %opaque.addr, align 8
  %call = call ptr @CHARDEV(ptr noundef %0)
  store ptr %call, ptr %chr, align 8
  %1 = load ptr, ptr %opaque.addr, align 8
  %call1 = call ptr @PTY_CHARDEV(ptr noundef %1)
  store ptr %call1, ptr %s, align 8
  store i64 4096, ptr %len, align 8
  %2 = load i64, ptr %len, align 8
  %3 = load ptr, ptr %s, align 8
  %read_bytes = getelementptr inbounds %struct.PtyChardev, ptr %3, i32 0, i32 2
  %4 = load i32, ptr %read_bytes, align 8
  %conv = sext i32 %4 to i64
  %cmp = icmp ugt i64 %2, %conv
  br i1 %cmp, label %if.then, label %if.end

if.then:                                          ; preds = %entry
  %5 = load ptr, ptr %s, align 8
  %read_bytes3 = getelementptr inbounds %struct.PtyChardev, ptr %5, i32 0, i32 2
  %6 = load i32, ptr %read_bytes3, align 8
  %conv4 = sext i32 %6 to i64
  store i64 %conv4, ptr %len, align 8
  br label %if.end

if.end:                                           ; preds = %if.then, %entry
  %7 = load i64, ptr %len, align 8
  %cmp5 = icmp eq i64 %7, 0
  br i1 %cmp5, label %if.then7, label %if.end8

if.then7:                                         ; preds = %if.end
  store i32 1, ptr %retval, align 4
  br label %return

if.end8:                                          ; preds = %if.end
  %8 = load ptr, ptr %s, align 8
  %ioc = getelementptr inbounds %struct.PtyChardev, ptr %8, i32 0, i32 1
  %9 = load ptr, ptr %ioc, align 8
  %arraydecay = getelementptr inbounds [4096 x i8], ptr %buf, i64 0, i64 0
  %10 = load i64, ptr %len, align 8
  %call9 = call i64 @qio_channel_read(ptr noundef %9, ptr noundef %arraydecay, i64 noundef %10, ptr noundef null)
  store i64 %call9, ptr %ret, align 8
  %11 = load i64, ptr %ret, align 8
  %cmp10 = icmp sle i64 %11, 0
  br i1 %cmp10, label %if.then12, label %if.else

if.then12:                                        ; preds = %if.end8
  %12 = load ptr, ptr %chr, align 8
  call void @pty_chr_state(ptr noundef %12, i32 noundef 0)
  store i32 0, ptr %retval, align 4
  br label %return

if.else:                                          ; preds = %if.end8
  %13 = load ptr, ptr %chr, align 8
  call void @pty_chr_state(ptr noundef %13, i32 noundef 1)
  %14 = load ptr, ptr %chr, align 8
  %arraydecay13 = getelementptr inbounds [4096 x i8], ptr %buf, i64 0, i64 0
  %15 = load i64, ptr %ret, align 8
  %conv14 = trunc i64 %15 to i32
  call void @qemu_chr_be_write(ptr noundef %14, ptr noundef %arraydecay13, i32 noundef %conv14)
  br label %if.end15

if.end15:                                         ; preds = %if.else
  store i32 1, ptr %retval, align 4
  br label %return

return:                                           ; preds = %if.end15, %if.then12, %if.then7
  %16 = load i32, ptr %retval, align 4
  ret i32 %16
}