; Function Attrs: nounwind sspstrong uwtable
define internal range(i32 0, 2) i32 @pty_chr_read(ptr readnone captures(none) %chan, i32 %cond, ptr noundef %opaque) #0 {
entry:
  %buf = alloca [4096 x i8], align 16
  %call.i = tail call ptr @object_dynamic_cast_assert(ptr noundef %opaque, ptr noundef nonnull @.str.1, ptr noundef nonnull @.str.2, i32 noundef 231, ptr noundef nonnull @__func__.CHARDEV) #9
  %call.i9 = tail call ptr @object_dynamic_cast_assert(ptr noundef %opaque, ptr noundef nonnull @.str, ptr noundef nonnull @.str.3, i32 noundef 48, ptr noundef nonnull @__func__.PTY_CHARDEV) #9
  %read_bytes = getelementptr inbounds nuw i8, ptr %call.i9, i64 160
  %0 = load i32, ptr %read_bytes, align 8
  %cmp5 = icmp eq i32 %0, 0
  br i1 %cmp5, label %return, label %if.end8

if.end8:                                          ; preds = %entry
  %narrow = tail call i32 @llvm.umin.i32(i32 %0, i32 4096)
  %spec.select = zext nneg i32 %narrow to i64
  %ioc = getelementptr inbounds nuw i8, ptr %call.i9, i64 152
  %1 = load ptr, ptr %ioc, align 8
  %call9 = call i64 @qio_channel_read(ptr noundef %1, ptr noundef nonnull %buf, i64 noundef %spec.select, ptr noundef null) #9
  %cmp10 = icmp slt i64 %call9, 1
  br i1 %cmp10, label %if.then12, label %if.else

if.then12:                                        ; preds = %if.end8
  call fastcc void @pty_chr_state(ptr noundef %call.i, i32 noundef 0)
  br label %return

if.else:                                          ; preds = %if.end8
  call fastcc void @pty_chr_state(ptr noundef %call.i, i32 noundef 1)
  %conv14 = trunc i64 %call9 to i32
  call void @qemu_chr_be_write(ptr noundef %call.i, ptr noundef nonnull %buf, i32 noundef %conv14) #9
  br label %return

return:                                           ; preds = %entry, %if.else, %if.then12
  %retval.0 = phi i32 [ 0, %if.then12 ], [ 1, %if.else ], [ 1, %entry ]
  ret i32 %retval.0
}